	.file	"account.cpp"
	.intel_syntax noprefix
	.text
.Ltext0:
	.file 0 "/home/ajain/Desktop/Fall_2023/cpp_practice" "account.cpp"
	.section	.text._ZNSt11char_traitsIcE6lengthEPKc,"axG",@progbits,_ZNSt11char_traitsIcE6lengthEPKc,comdat
	.weak	_ZNSt11char_traitsIcE6lengthEPKc
	.type	_ZNSt11char_traitsIcE6lengthEPKc, @function
_ZNSt11char_traitsIcE6lengthEPKc:
.LFB450:
	.file 1 "/usr/include/c++/11/bits/char_traits.h"
	.loc 1 393 7
	.cfi_startproc
	endbr64
	push	rbp
	.cfi_def_cfa_offset 16
	.cfi_offset 6, -16
	mov	rbp, rsp
	.cfi_def_cfa_register 6
	sub	rsp, 32
	mov	QWORD PTR -24[rbp], rdi
	mov	rax, QWORD PTR -24[rbp]
	mov	QWORD PTR -8[rbp], rax
.LBB4:
.LBB5:
	.loc 1 290 46
	mov	eax, 0
.LBE5:
.LBE4:
	.loc 1 396 2
	test	al, al
	je	.L3
	.loc 1 397 52
	mov	rax, QWORD PTR -24[rbp]
	mov	rdi, rax
	call	_ZN9__gnu_cxx11char_traitsIcE6lengthEPKc
	.loc 1 397 56
	jmp	.L4
.L3:
	.loc 1 399 25
	mov	rax, QWORD PTR -24[rbp]
	mov	rdi, rax
	call	strlen@PLT
	.loc 1 399 29
	nop
.L4:
	.loc 1 400 7
	leave
	.cfi_def_cfa 7, 8
	ret
	.cfi_endproc
.LFE450:
	.size	_ZNSt11char_traitsIcE6lengthEPKc, .-_ZNSt11char_traitsIcE6lengthEPKc
	.local	_ZStL8__ioinit
	.comm	_ZStL8__ioinit,1,1
	.section	.rodata
	.type	_ZN6__pstl9execution2v1L3seqE, @object
	.size	_ZN6__pstl9execution2v1L3seqE, 1
_ZN6__pstl9execution2v1L3seqE:
	.zero	1
	.type	_ZN6__pstl9execution2v1L3parE, @object
	.size	_ZN6__pstl9execution2v1L3parE, 1
_ZN6__pstl9execution2v1L3parE:
	.zero	1
	.type	_ZN6__pstl9execution2v1L9par_unseqE, @object
	.size	_ZN6__pstl9execution2v1L9par_unseqE, 1
_ZN6__pstl9execution2v1L9par_unseqE:
	.zero	1
	.type	_ZN6__pstl9execution2v1L5unseqE, @object
	.size	_ZN6__pstl9execution2v1L5unseqE, 1
_ZN6__pstl9execution2v1L5unseqE:
	.zero	1
	.align 8
.LC0:
	.string	"Account created with balance: "
	.text
	.align 2
	.globl	_ZN7AccountC2EdNSt7__cxx1112basic_stringIcSt11char_traitsIcESaIcEEE
	.type	_ZN7AccountC2EdNSt7__cxx1112basic_stringIcSt11char_traitsIcESaIcEEE, @function
_ZN7AccountC2EdNSt7__cxx1112basic_stringIcSt11char_traitsIcESaIcEEE:
.LFB3412:
	.file 2 "account.cpp"
	.loc 2 6 1
	.cfi_startproc
	.cfi_personality 0x9b,DW.ref.__gxx_personality_v0
	.cfi_lsda 0x1b,.LLSDA3412
	endbr64
	push	rbp
	.cfi_def_cfa_offset 16
	.cfi_offset 6, -16
	mov	rbp, rsp
	.cfi_def_cfa_register 6
	push	r12
	push	rbx
	sub	rsp, 32
	.cfi_offset 12, -24
	.cfi_offset 3, -32
	mov	QWORD PTR -24[rbp], rdi
	movsd	QWORD PTR -32[rbp], xmm0
	mov	QWORD PTR -40[rbp], rsi
.LBB6:
	.loc 2 8 15
	mov	edi, 0
	call	time@PLT
	.loc 2 8 10
	mov	edi, eax
	call	srand@PLT
	.loc 2 9 39
	mov	edi, 8
.LEHB0:
	call	_Znwm@PLT
	movsd	xmm0, QWORD PTR -32[rbp]
	movsd	QWORD PTR [rax], xmm0
	.loc 2 9 19
	mov	rdx, QWORD PTR -24[rbp]
	mov	QWORD PTR 8[rdx], rax
	.loc 2 10 18
	lea	rax, .LC0[rip]
	mov	rsi, rax
	lea	rax, _ZSt4cout[rip]
	mov	rdi, rax
	call	_ZStlsISt11char_traitsIcEERSt13basic_ostreamIcT_ES5_PKc@PLT
	mov	rdx, rax
	.loc 2 10 62
	mov	rax, QWORD PTR -24[rbp]
	mov	rax, QWORD PTR 8[rax]
	.loc 2 10 69
	mov	rax, QWORD PTR [rax]
	movq	xmm0, rax
	mov	rdi, rdx
	call	_ZNSolsEd@PLT
	.loc 2 10 79
	mov	rdx, QWORD PTR _ZSt4endlIcSt11char_traitsIcEERSt13basic_ostreamIT_T0_ES6_@GOTPCREL[rip]
	mov	rsi, rdx
	mov	rdi, rax
	call	_ZNSolsEPFRSoS_E@PLT
	.loc 2 11 48
	mov	edi, 32
	call	_Znwm@PLT
.LEHE0:
	mov	rbx, rax
	mov	rax, QWORD PTR -40[rbp]
	mov	rsi, rax
	mov	rdi, rbx
.LEHB1:
	call	_ZNSt7__cxx1112basic_stringIcSt11char_traitsIcESaIcEEC1ERKS4_@PLT
.LEHE1:
	.loc 2 11 21 discriminator 2
	mov	rax, QWORD PTR -24[rbp]
	mov	QWORD PTR 16[rax], rbx
	.loc 2 12 48 discriminator 2
	call	rand@PLT
	.loc 2 12 51 discriminator 2
	movsx	rdx, eax
	imul	rdx, rdx, 1125899907
	shr	rdx, 32
	sar	edx, 18
	mov	ecx, eax
	sar	ecx, 31
	sub	edx, ecx
	imul	ecx, edx, 1000000
	sub	eax, ecx
	mov	edx, eax
	mov	ebx, edx
	.loc 2 12 60 discriminator 2
	mov	edi, 4
.LEHB2:
	call	_Znwm@PLT
	mov	DWORD PTR [rax], ebx
	.loc 2 12 25 discriminator 2
	mov	rdx, QWORD PTR -24[rbp]
	mov	QWORD PTR [rdx], rax
.LBE6:
	.loc 2 13 1 discriminator 2
	jmp	.L8
.L7:
	endbr64
.LBB7:
	.loc 2 11 48
	mov	r12, rax
	mov	esi, 32
	mov	rdi, rbx
	call	_ZdlPvm@PLT
	mov	rax, r12
	mov	rdi, rax
	call	_Unwind_Resume@PLT
.LEHE2:
.L8:
.LBE7:
	.loc 2 13 1
	add	rsp, 32
	pop	rbx
	pop	r12
	pop	rbp
	.cfi_def_cfa 7, 8
	ret
	.cfi_endproc
.LFE3412:
	.globl	__gxx_personality_v0
	.section	.gcc_except_table,"a",@progbits
.LLSDA3412:
	.byte	0xff
	.byte	0xff
	.byte	0x1
	.uleb128 .LLSDACSE3412-.LLSDACSB3412
.LLSDACSB3412:
	.uleb128 .LEHB0-.LFB3412
	.uleb128 .LEHE0-.LEHB0
	.uleb128 0
	.uleb128 0
	.uleb128 .LEHB1-.LFB3412
	.uleb128 .LEHE1-.LEHB1
	.uleb128 .L7-.LFB3412
	.uleb128 0
	.uleb128 .LEHB2-.LFB3412
	.uleb128 .LEHE2-.LEHB2
	.uleb128 0
	.uleb128 0
.LLSDACSE3412:
	.text
	.size	_ZN7AccountC2EdNSt7__cxx1112basic_stringIcSt11char_traitsIcESaIcEEE, .-_ZN7AccountC2EdNSt7__cxx1112basic_stringIcSt11char_traitsIcESaIcEEE
	.globl	_ZN7AccountC1EdNSt7__cxx1112basic_stringIcSt11char_traitsIcESaIcEEE
	.set	_ZN7AccountC1EdNSt7__cxx1112basic_stringIcSt11char_traitsIcESaIcEEE,_ZN7AccountC2EdNSt7__cxx1112basic_stringIcSt11char_traitsIcESaIcEEE
	.section	.rodata
.LC2:
	.string	""
	.text
	.align 2
	.globl	_ZN7AccountC2Ev
	.type	_ZN7AccountC2Ev, @function
_ZN7AccountC2Ev:
.LFB3415:
	.loc 2 14 1
	.cfi_startproc
	.cfi_personality 0x9b,DW.ref.__gxx_personality_v0
	.cfi_lsda 0x1b,.LLSDA3415
	endbr64
	push	rbp
	.cfi_def_cfa_offset 16
	.cfi_offset 6, -16
	mov	rbp, rsp
	.cfi_def_cfa_register 6
	push	r12
	push	rbx
	sub	rsp, 32
	.cfi_offset 12, -24
	.cfi_offset 3, -32
	mov	QWORD PTR -40[rbp], rdi
	.loc 2 14 1
	mov	rax, QWORD PTR fs:40
	mov	QWORD PTR -24[rbp], rax
	xor	eax, eax
.LBB8:
	.loc 2 16 15
	mov	edi, 0
	call	time@PLT
	.loc 2 16 10
	mov	edi, eax
	call	srand@PLT
	.loc 2 17 33
	mov	edi, 8
.LEHB3:
	call	_Znwm@PLT
	pxor	xmm0, xmm0
	movsd	QWORD PTR [rax], xmm0
	.loc 2 17 19
	mov	rdx, QWORD PTR -40[rbp]
	mov	QWORD PTR 8[rdx], rax
	.loc 2 18 18
	lea	rax, .LC0[rip]
	mov	rsi, rax
	lea	rax, _ZSt4cout[rip]
	mov	rdi, rax
	call	_ZStlsISt11char_traitsIcEERSt13basic_ostreamIcT_ES5_PKc@PLT
	mov	rdx, rax
	.loc 2 18 62
	mov	rax, QWORD PTR -40[rbp]
	mov	rax, QWORD PTR 8[rax]
	.loc 2 18 69
	mov	rax, QWORD PTR [rax]
	movq	xmm0, rax
	mov	rdi, rdx
	call	_ZNSolsEd@PLT
	.loc 2 18 79
	mov	rdx, QWORD PTR _ZSt4endlIcSt11char_traitsIcEERSt13basic_ostreamIT_T0_ES6_@GOTPCREL[rip]
	mov	rsi, rdx
	mov	rdi, rax
	call	_ZNSolsEPFRSoS_E@PLT
.LEHE3:
	.loc 2 19 21
	lea	rax, -25[rbp]
	mov	rdi, rax
	call	_ZNSaIcEC1Ev@PLT
	lea	r12, -25[rbp]
	.loc 2 19 41
	mov	edi, 32
.LEHB4:
	call	_Znwm@PLT
.LEHE4:
	mov	rbx, rax
	mov	rdx, r12
	lea	rax, .LC2[rip]
	mov	rsi, rax
	mov	rdi, rbx
.LEHB5:
	call	_ZNSt7__cxx1112basic_stringIcSt11char_traitsIcESaIcEEC1IS3_EEPKcRKS3_
.LEHE5:
	.loc 2 19 21 discriminator 4
	mov	rax, QWORD PTR -40[rbp]
	mov	QWORD PTR 16[rax], rbx
	lea	rax, -25[rbp]
	mov	rdi, rax
	call	_ZNSaIcED1Ev@PLT
	.loc 2 20 48 discriminator 4
	call	rand@PLT
	.loc 2 20 51 discriminator 4
	movsx	rdx, eax
	imul	rdx, rdx, 1125899907
	shr	rdx, 32
	sar	edx, 18
	mov	ecx, eax
	sar	ecx, 31
	sub	edx, ecx
	imul	ecx, edx, 1000000
	sub	eax, ecx
	mov	edx, eax
	mov	ebx, edx
	.loc 2 20 60 discriminator 4
	mov	edi, 4
.LEHB6:
	call	_Znwm@PLT
	mov	DWORD PTR [rax], ebx
	.loc 2 20 25 discriminator 4
	mov	rdx, QWORD PTR -40[rbp]
	mov	QWORD PTR [rdx], rax
.LBE8:
	.loc 2 21 1 discriminator 4
	nop
	mov	rax, QWORD PTR -24[rbp]
	sub	rax, QWORD PTR fs:40
	je	.L12
	jmp	.L15
.L14:
	endbr64
.LBB9:
	.loc 2 19 41
	mov	r12, rax
	mov	esi, 32
	mov	rdi, rbx
	call	_ZdlPvm@PLT
	mov	rbx, r12
	jmp	.L11
.L13:
	endbr64
	.loc 2 19 21
	mov	rbx, rax
.L11:
	.loc 2 19 21 is_stmt 0 discriminator 1
	lea	rax, -25[rbp]
	mov	rdi, rax
	call	_ZNSaIcED1Ev@PLT
	mov	rax, rbx
	mov	rdi, rax
	call	_Unwind_Resume@PLT
.LEHE6:
.L15:
.LBE9:
	.loc 2 21 1 is_stmt 1
	call	__stack_chk_fail@PLT
.L12:
	add	rsp, 32
	pop	rbx
	pop	r12
	pop	rbp
	.cfi_def_cfa 7, 8
	ret
	.cfi_endproc
.LFE3415:
	.section	.gcc_except_table
.LLSDA3415:
	.byte	0xff
	.byte	0xff
	.byte	0x1
	.uleb128 .LLSDACSE3415-.LLSDACSB3415
.LLSDACSB3415:
	.uleb128 .LEHB3-.LFB3415
	.uleb128 .LEHE3-.LEHB3
	.uleb128 0
	.uleb128 0
	.uleb128 .LEHB4-.LFB3415
	.uleb128 .LEHE4-.LEHB4
	.uleb128 .L13-.LFB3415
	.uleb128 0
	.uleb128 .LEHB5-.LFB3415
	.uleb128 .LEHE5-.LEHB5
	.uleb128 .L14-.LFB3415
	.uleb128 0
	.uleb128 .LEHB6-.LFB3415
	.uleb128 .LEHE6-.LEHB6
	.uleb128 0
	.uleb128 0
.LLSDACSE3415:
	.text
	.size	_ZN7AccountC2Ev, .-_ZN7AccountC2Ev
	.globl	_ZN7AccountC1Ev
	.set	_ZN7AccountC1Ev,_ZN7AccountC2Ev
	.align 2
	.globl	_ZN7AccountC2ERKS_
	.type	_ZN7AccountC2ERKS_, @function
_ZN7AccountC2ERKS_:
.LFB3418:
	.loc 2 22 1
	.cfi_startproc
	.cfi_personality 0x9b,DW.ref.__gxx_personality_v0
	.cfi_lsda 0x1b,.LLSDA3418
	endbr64
	push	rbp
	.cfi_def_cfa_offset 16
	.cfi_offset 6, -16
	mov	rbp, rsp
	.cfi_def_cfa_register 6
	push	r12
	push	rbx
	sub	rsp, 16
	.cfi_offset 12, -24
	.cfi_offset 3, -32
	mov	QWORD PTR -24[rbp], rdi
	mov	QWORD PTR -32[rbp], rsi
.LBB10:
	.loc 2 24 48
	call	rand@PLT
	.loc 2 24 51
	movsx	rdx, eax
	imul	rdx, rdx, 1125899907
	shr	rdx, 32
	sar	edx, 18
	mov	ecx, eax
	sar	ecx, 31
	sub	edx, ecx
	imul	ecx, edx, 1000000
	sub	eax, ecx
	mov	edx, eax
	mov	ebx, edx
	.loc 2 24 60
	mov	edi, 4
.LEHB7:
	call	_Znwm@PLT
	mov	DWORD PTR [rax], ebx
	.loc 2 24 25
	mov	rdx, QWORD PTR -24[rbp]
	mov	QWORD PTR [rdx], rax
	.loc 2 25 45
	mov	edi, 8
	call	_Znwm@PLT
	.loc 2 25 38
	mov	rdx, QWORD PTR -32[rbp]
	mov	rdx, QWORD PTR 8[rdx]
	.loc 2 25 32
	movsd	xmm0, QWORD PTR [rdx]
	.loc 2 25 45
	movsd	QWORD PTR [rax], xmm0
	.loc 2 25 19
	mov	rdx, QWORD PTR -24[rbp]
	mov	QWORD PTR 8[rdx], rax
	.loc 2 26 54
	mov	edi, 32
	call	_Znwm@PLT
.LEHE7:
	mov	rbx, rax
	.loc 2 26 45
	mov	rax, QWORD PTR -32[rbp]
	mov	rax, QWORD PTR 16[rax]
	.loc 2 26 54
	mov	rsi, rax
	mov	rdi, rbx
.LEHB8:
	call	_ZNSt7__cxx1112basic_stringIcSt11char_traitsIcESaIcEEC1ERKS4_@PLT
.LEHE8:
	.loc 2 26 21 discriminator 2
	mov	rax, QWORD PTR -24[rbp]
	mov	QWORD PTR 16[rax], rbx
	.loc 2 27 18 discriminator 2
	lea	rax, .LC0[rip]
	mov	rsi, rax
	lea	rax, _ZSt4cout[rip]
	mov	rdi, rax
.LEHB9:
	call	_ZStlsISt11char_traitsIcEERSt13basic_ostreamIcT_ES5_PKc@PLT
	mov	rdx, rax
	.loc 2 27 62 discriminator 2
	mov	rax, QWORD PTR -24[rbp]
	mov	rax, QWORD PTR 8[rax]
	.loc 2 27 69 discriminator 2
	mov	rax, QWORD PTR [rax]
	movq	xmm0, rax
	mov	rdi, rdx
	call	_ZNSolsEd@PLT
	.loc 2 27 79 discriminator 2
	mov	rdx, QWORD PTR _ZSt4endlIcSt11char_traitsIcEERSt13basic_ostreamIT_T0_ES6_@GOTPCREL[rip]
	mov	rsi, rdx
	mov	rdi, rax
	call	_ZNSolsEPFRSoS_E@PLT
.LBE10:
	.loc 2 28 1 discriminator 2
	jmp	.L19
.L18:
	endbr64
.LBB11:
	.loc 2 26 54
	mov	r12, rax
	mov	esi, 32
	mov	rdi, rbx
	call	_ZdlPvm@PLT
	mov	rax, r12
	mov	rdi, rax
	call	_Unwind_Resume@PLT
.LEHE9:
.L19:
.LBE11:
	.loc 2 28 1
	add	rsp, 16
	pop	rbx
	pop	r12
	pop	rbp
	.cfi_def_cfa 7, 8
	ret
	.cfi_endproc
.LFE3418:
	.section	.gcc_except_table
.LLSDA3418:
	.byte	0xff
	.byte	0xff
	.byte	0x1
	.uleb128 .LLSDACSE3418-.LLSDACSB3418
.LLSDACSB3418:
	.uleb128 .LEHB7-.LFB3418
	.uleb128 .LEHE7-.LEHB7
	.uleb128 0
	.uleb128 0
	.uleb128 .LEHB8-.LFB3418
	.uleb128 .LEHE8-.LEHB8
	.uleb128 .L18-.LFB3418
	.uleb128 0
	.uleb128 .LEHB9-.LFB3418
	.uleb128 .LEHE9-.LEHB9
	.uleb128 0
	.uleb128 0
.LLSDACSE3418:
	.text
	.size	_ZN7AccountC2ERKS_, .-_ZN7AccountC2ERKS_
	.globl	_ZN7AccountC1ERKS_
	.set	_ZN7AccountC1ERKS_,_ZN7AccountC2ERKS_
	.section	.rodata
.LC3:
	.string	"Account of "
.LC4:
	.string	" successfully deleted"
	.text
	.align 2
	.globl	_ZN7AccountD2Ev
	.type	_ZN7AccountD2Ev, @function
_ZN7AccountD2Ev:
.LFB3421:
	.loc 2 29 1
	.cfi_startproc
	.cfi_personality 0x9b,DW.ref.__gxx_personality_v0
	.cfi_lsda 0x1b,.LLSDA3421
	endbr64
	push	rbp
	.cfi_def_cfa_offset 16
	.cfi_offset 6, -16
	mov	rbp, rsp
	.cfi_def_cfa_register 6
	push	rbx
	sub	rsp, 24
	.cfi_offset 3, -24
	mov	QWORD PTR -24[rbp], rdi
.LBB12:
	.loc 2 31 18
	mov	rax, QWORD PTR -24[rbp]
	mov	rax, QWORD PTR 8[rax]
	.loc 2 31 5
	test	rax, rax
	je	.L21
	.loc 2 31 18 discriminator 1
	mov	esi, 8
	mov	rdi, rax
	call	_ZdlPvm@PLT
.L21:
	.loc 2 32 18
	lea	rax, .LC3[rip]
	mov	rsi, rax
	lea	rax, _ZSt4cout[rip]
	mov	rdi, rax
	call	_ZStlsISt11char_traitsIcEERSt13basic_ostreamIcT_ES5_PKc@PLT
	mov	rdx, rax
	.loc 2 32 42
	mov	rax, QWORD PTR -24[rbp]
	mov	rax, QWORD PTR [rax]
	mov	eax, DWORD PTR [rax]
	mov	esi, eax
	mov	rdi, rdx
	call	_ZNSolsEj@PLT
	mov	rdx, rax
	.loc 2 32 59
	lea	rax, .LC4[rip]
	mov	rsi, rax
	mov	rdi, rdx
	call	_ZStlsISt11char_traitsIcEERSt13basic_ostreamIcT_ES5_PKc@PLT
	.loc 2 32 91
	mov	rdx, QWORD PTR _ZSt4endlIcSt11char_traitsIcEERSt13basic_ostreamIT_T0_ES6_@GOTPCREL[rip]
	mov	rsi, rdx
	mov	rdi, rax
	call	_ZNSolsEPFRSoS_E@PLT
	.loc 2 33 18
	mov	rax, QWORD PTR -24[rbp]
	mov	rax, QWORD PTR [rax]
	.loc 2 33 5
	test	rax, rax
	je	.L22
	.loc 2 33 18 discriminator 1
	mov	esi, 4
	mov	rdi, rax
	call	_ZdlPvm@PLT
.L22:
	.loc 2 34 18
	mov	rax, QWORD PTR -24[rbp]
	mov	rbx, QWORD PTR 16[rax]
	.loc 2 34 5
	test	rbx, rbx
	je	.L24
	.loc 2 34 18 discriminator 1
	mov	rdi, rbx
	call	_ZNSt7__cxx1112basic_stringIcSt11char_traitsIcESaIcEED1Ev@PLT
	mov	esi, 32
	mov	rdi, rbx
	call	_ZdlPvm@PLT
.L24:
.LBE12:
	.loc 2 35 1
	nop
	mov	rbx, QWORD PTR -8[rbp]
	leave
	.cfi_def_cfa 7, 8
	ret
	.cfi_endproc
.LFE3421:
	.section	.gcc_except_table
.LLSDA3421:
	.byte	0xff
	.byte	0xff
	.byte	0x1
	.uleb128 .LLSDACSE3421-.LLSDACSB3421
.LLSDACSB3421:
.LLSDACSE3421:
	.text
	.size	_ZN7AccountD2Ev, .-_ZN7AccountD2Ev
	.globl	_ZN7AccountD1Ev
	.set	_ZN7AccountD1Ev,_ZN7AccountD2Ev
	.align 2
	.globl	_ZN7Account7depositERKd
	.type	_ZN7Account7depositERKd, @function
_ZN7Account7depositERKd:
.LFB3423:
	.loc 2 38 1
	.cfi_startproc
	endbr64
	push	rbp
	.cfi_def_cfa_offset 16
	.cfi_offset 6, -16
	mov	rbp, rsp
	.cfi_def_cfa_register 6
	mov	QWORD PTR -8[rbp], rdi
	mov	QWORD PTR -16[rbp], rsi
	.loc 2 39 13
	mov	rax, QWORD PTR -8[rbp]
	mov	rax, QWORD PTR 8[rax]
	.loc 2 39 22
	movsd	xmm1, QWORD PTR [rax]
	.loc 2 39 25
	mov	rax, QWORD PTR -16[rbp]
	movsd	xmm0, QWORD PTR [rax]
	.loc 2 39 13
	mov	rax, QWORD PTR -8[rbp]
	mov	rax, QWORD PTR 8[rax]
	.loc 2 39 22
	addsd	xmm0, xmm1
	movsd	QWORD PTR [rax], xmm0
	.loc 2 40 1
	nop
	pop	rbp
	.cfi_def_cfa 7, 8
	ret
	.cfi_endproc
.LFE3423:
	.size	_ZN7Account7depositERKd, .-_ZN7Account7depositERKd
	.align 2
	.globl	_ZN7Account10getBalanceEv
	.type	_ZN7Account10getBalanceEv, @function
_ZN7Account10getBalanceEv:
.LFB3424:
	.loc 2 42 1
	.cfi_startproc
	endbr64
	push	rbp
	.cfi_def_cfa_offset 16
	.cfi_offset 6, -16
	mov	rbp, rsp
	.cfi_def_cfa_register 6
	mov	QWORD PTR -8[rbp], rdi
	.loc 2 43 19
	mov	rax, QWORD PTR -8[rbp]
	mov	rax, QWORD PTR 8[rax]
	movsd	xmm0, QWORD PTR [rax]
	movq	rax, xmm0
	.loc 2 44 1
	movq	xmm0, rax
	pop	rbp
	.cfi_def_cfa 7, 8
	ret
	.cfi_endproc
.LFE3424:
	.size	_ZN7Account10getBalanceEv, .-_ZN7Account10getBalanceEv
	.section	.text._ZN9__gnu_cxx11char_traitsIcE2eqERKcS3_,"axG",@progbits,_ZN9__gnu_cxx11char_traitsIcE2eqERKcS3_,comdat
	.weak	_ZN9__gnu_cxx11char_traitsIcE2eqERKcS3_
	.type	_ZN9__gnu_cxx11char_traitsIcE2eqERKcS3_, @function
_ZN9__gnu_cxx11char_traitsIcE2eqERKcS3_:
.LFB3426:
	.loc 1 106 7
	.cfi_startproc
	endbr64
	push	rbp
	.cfi_def_cfa_offset 16
	.cfi_offset 6, -16
	mov	rbp, rsp
	.cfi_def_cfa_register 6
	mov	QWORD PTR -8[rbp], rdi
	mov	QWORD PTR -16[rbp], rsi
	.loc 1 107 21
	mov	rax, QWORD PTR -8[rbp]
	movzx	edx, BYTE PTR [rax]
	mov	rax, QWORD PTR -16[rbp]
	movzx	eax, BYTE PTR [rax]
	.loc 1 107 24
	cmp	dl, al
	sete	al
	.loc 1 107 30
	pop	rbp
	.cfi_def_cfa 7, 8
	ret
	.cfi_endproc
.LFE3426:
	.size	_ZN9__gnu_cxx11char_traitsIcE2eqERKcS3_, .-_ZN9__gnu_cxx11char_traitsIcE2eqERKcS3_
	.section	.text._ZN9__gnu_cxx11char_traitsIcE6lengthEPKc,"axG",@progbits,_ZN9__gnu_cxx11char_traitsIcE6lengthEPKc,comdat
	.align 2
	.weak	_ZN9__gnu_cxx11char_traitsIcE6lengthEPKc
	.type	_ZN9__gnu_cxx11char_traitsIcE6lengthEPKc, @function
_ZN9__gnu_cxx11char_traitsIcE6lengthEPKc:
.LFB3425:
	.loc 1 167 5
	.cfi_startproc
	endbr64
	push	rbp
	.cfi_def_cfa_offset 16
	.cfi_offset 6, -16
	mov	rbp, rsp
	.cfi_def_cfa_register 6
	sub	rsp, 48
	mov	QWORD PTR -40[rbp], rdi
	.loc 1 167 5
	mov	rax, QWORD PTR fs:40
	mov	QWORD PTR -8[rbp], rax
	xor	eax, eax
	.loc 1 170 19
	mov	QWORD PTR -16[rbp], 0
	.loc 1 171 7
	jmp	.L31
.L32:
	.loc 1 172 9
	add	QWORD PTR -16[rbp], 1
.L31:
	.loc 1 171 17
	mov	BYTE PTR -17[rbp], 0
	.loc 1 171 21
	mov	rdx, QWORD PTR -40[rbp]
	mov	rax, QWORD PTR -16[rbp]
	add	rdx, rax
	.loc 1 171 17
	lea	rax, -17[rbp]
	mov	rsi, rax
	mov	rdi, rdx
	call	_ZN9__gnu_cxx11char_traitsIcE2eqERKcS3_
	xor	eax, 1
	test	al, al
	jne	.L32
	.loc 1 173 14
	mov	rax, QWORD PTR -16[rbp]
	.loc 1 174 5
	mov	rdx, QWORD PTR -8[rbp]
	sub	rdx, QWORD PTR fs:40
	je	.L34
	call	__stack_chk_fail@PLT
.L34:
	leave
	.cfi_def_cfa 7, 8
	ret
	.cfi_endproc
.LFE3425:
	.size	_ZN9__gnu_cxx11char_traitsIcE6lengthEPKc, .-_ZN9__gnu_cxx11char_traitsIcE6lengthEPKc
	.section	.text._ZNSt7__cxx1112basic_stringIcSt11char_traitsIcESaIcEE12_Alloc_hiderD2Ev,"axG",@progbits,_ZNSt7__cxx1112basic_stringIcSt11char_traitsIcESaIcEE12_Alloc_hiderD5Ev,comdat
	.align 2
	.weak	_ZNSt7__cxx1112basic_stringIcSt11char_traitsIcESaIcEE12_Alloc_hiderD2Ev
	.type	_ZNSt7__cxx1112basic_stringIcSt11char_traitsIcESaIcEE12_Alloc_hiderD2Ev, @function
_ZNSt7__cxx1112basic_stringIcSt11char_traitsIcESaIcEE12_Alloc_hiderD2Ev:
.LFB3533:
	.file 3 "/usr/include/c++/11/bits/basic_string.h"
	.loc 3 158 14
	.cfi_startproc
	endbr64
	push	rbp
	.cfi_def_cfa_offset 16
	.cfi_offset 6, -16
	mov	rbp, rsp
	.cfi_def_cfa_register 6
	sub	rsp, 16
	mov	QWORD PTR -8[rbp], rdi
.LBB13:
	.loc 3 158 14
	mov	rax, QWORD PTR -8[rbp]
	mov	rdi, rax
	call	_ZNSaIcED2Ev@PLT
.LBE13:
	nop
	leave
	.cfi_def_cfa 7, 8
	ret
	.cfi_endproc
.LFE3533:
	.size	_ZNSt7__cxx1112basic_stringIcSt11char_traitsIcESaIcEE12_Alloc_hiderD2Ev, .-_ZNSt7__cxx1112basic_stringIcSt11char_traitsIcESaIcEE12_Alloc_hiderD2Ev
	.weak	_ZNSt7__cxx1112basic_stringIcSt11char_traitsIcESaIcEE12_Alloc_hiderD1Ev
	.set	_ZNSt7__cxx1112basic_stringIcSt11char_traitsIcESaIcEE12_Alloc_hiderD1Ev,_ZNSt7__cxx1112basic_stringIcSt11char_traitsIcESaIcEE12_Alloc_hiderD2Ev
	.section	.text._ZNSt7__cxx1112basic_stringIcSt11char_traitsIcESaIcEEC2IS3_EEPKcRKS3_,"axG",@progbits,_ZNSt7__cxx1112basic_stringIcSt11char_traitsIcESaIcEEC5IS3_EEPKcRKS3_,comdat
	.align 2
	.weak	_ZNSt7__cxx1112basic_stringIcSt11char_traitsIcESaIcEEC2IS3_EEPKcRKS3_
	.type	_ZNSt7__cxx1112basic_stringIcSt11char_traitsIcESaIcEEC2IS3_EEPKcRKS3_, @function
_ZNSt7__cxx1112basic_stringIcSt11char_traitsIcESaIcEEC2IS3_EEPKcRKS3_:
.LFB3737:
	.loc 3 533 7
	.cfi_startproc
	.cfi_personality 0x9b,DW.ref.__gxx_personality_v0
	.cfi_lsda 0x1b,.LLSDA3737
	endbr64
	push	rbp
	.cfi_def_cfa_offset 16
	.cfi_offset 6, -16
	mov	rbp, rsp
	.cfi_def_cfa_register 6
	push	rbx
	sub	rsp, 72
	.cfi_offset 3, -24
	mov	QWORD PTR -56[rbp], rdi
	mov	QWORD PTR -64[rbp], rsi
	mov	QWORD PTR -72[rbp], rdx
	.loc 3 533 7
	mov	rax, QWORD PTR fs:40
	mov	QWORD PTR -24[rbp], rax
	xor	eax, eax
.LBB14:
	.loc 3 534 9
	mov	rbx, QWORD PTR -56[rbp]
	mov	rax, QWORD PTR -56[rbp]
	mov	rdi, rax
.LEHB10:
	call	_ZNSt7__cxx1112basic_stringIcSt11char_traitsIcESaIcEE13_M_local_dataEv@PLT
	mov	rcx, rax
	mov	rax, QWORD PTR -72[rbp]
	mov	rdx, rax
	mov	rsi, rcx
	mov	rdi, rbx
	call	_ZNSt7__cxx1112basic_stringIcSt11char_traitsIcESaIcEE12_Alloc_hiderC1EPcRKS3_@PLT
.LEHE10:
.LBB15:
	.loc 3 536 28
	cmp	QWORD PTR -64[rbp], 0
	je	.L37
	.loc 3 536 55 discriminator 1
	mov	rax, QWORD PTR -64[rbp]
	mov	rdi, rax
.LEHB11:
	call	_ZNSt11char_traitsIcE6lengthEPKc
	.loc 3 536 28 discriminator 1
	mov	rdx, QWORD PTR -64[rbp]
	add	rax, rdx
	jmp	.L38
.L37:
	.loc 3 536 28 is_stmt 0 discriminator 2
	mov	eax, 1
.L38:
	.loc 3 536 16 is_stmt 1 discriminator 5
	mov	QWORD PTR -32[rbp], rax
	.loc 3 539 14 discriminator 5
	mov	rdx, QWORD PTR -32[rbp]
	mov	rcx, QWORD PTR -64[rbp]
	mov	rax, QWORD PTR -56[rbp]
	mov	rsi, rcx
	mov	rdi, rax
	call	_ZNSt7__cxx1112basic_stringIcSt11char_traitsIcESaIcEE12_M_constructIPKcEEvT_S8_St20forward_iterator_tag
.LEHE11:
.LBE15:
.LBE14:
	.loc 3 540 7
	jmp	.L42
.L41:
	endbr64
.LBB16:
	mov	rbx, rax
	mov	rax, QWORD PTR -56[rbp]
	mov	rdi, rax
	call	_ZNSt7__cxx1112basic_stringIcSt11char_traitsIcESaIcEE12_Alloc_hiderD1Ev
	mov	rax, rbx
	mov	rdi, rax
.LEHB12:
	call	_Unwind_Resume@PLT
.LEHE12:
.L42:
.LBE16:
	mov	rax, QWORD PTR -24[rbp]
	sub	rax, QWORD PTR fs:40
	je	.L40
	call	__stack_chk_fail@PLT
.L40:
	mov	rbx, QWORD PTR -8[rbp]
	leave
	.cfi_def_cfa 7, 8
	ret
	.cfi_endproc
.LFE3737:
	.section	.gcc_except_table
.LLSDA3737:
	.byte	0xff
	.byte	0xff
	.byte	0x1
	.uleb128 .LLSDACSE3737-.LLSDACSB3737
.LLSDACSB3737:
	.uleb128 .LEHB10-.LFB3737
	.uleb128 .LEHE10-.LEHB10
	.uleb128 0
	.uleb128 0
	.uleb128 .LEHB11-.LFB3737
	.uleb128 .LEHE11-.LEHB11
	.uleb128 .L41-.LFB3737
	.uleb128 0
	.uleb128 .LEHB12-.LFB3737
	.uleb128 .LEHE12-.LEHB12
	.uleb128 0
	.uleb128 0
.LLSDACSE3737:
	.section	.text._ZNSt7__cxx1112basic_stringIcSt11char_traitsIcESaIcEEC2IS3_EEPKcRKS3_,"axG",@progbits,_ZNSt7__cxx1112basic_stringIcSt11char_traitsIcESaIcEEC5IS3_EEPKcRKS3_,comdat
	.size	_ZNSt7__cxx1112basic_stringIcSt11char_traitsIcESaIcEEC2IS3_EEPKcRKS3_, .-_ZNSt7__cxx1112basic_stringIcSt11char_traitsIcESaIcEEC2IS3_EEPKcRKS3_
	.weak	_ZNSt7__cxx1112basic_stringIcSt11char_traitsIcESaIcEEC1IS3_EEPKcRKS3_
	.set	_ZNSt7__cxx1112basic_stringIcSt11char_traitsIcESaIcEEC1IS3_EEPKcRKS3_,_ZNSt7__cxx1112basic_stringIcSt11char_traitsIcESaIcEEC2IS3_EEPKcRKS3_
	.section	.text._ZSt8distanceIPKcENSt15iterator_traitsIT_E15difference_typeES3_S3_,"axG",@progbits,_ZSt8distanceIPKcENSt15iterator_traitsIT_E15difference_typeES3_S3_,comdat
	.weak	_ZSt8distanceIPKcENSt15iterator_traitsIT_E15difference_typeES3_S3_
	.type	_ZSt8distanceIPKcENSt15iterator_traitsIT_E15difference_typeES3_S3_, @function
_ZSt8distanceIPKcENSt15iterator_traitsIT_E15difference_typeES3_S3_:
.LFB3885:
	.file 4 "/usr/include/c++/11/bits/stl_iterator_base_funcs.h"
	.loc 4 138 5
	.cfi_startproc
	endbr64
	push	rbp
	.cfi_def_cfa_offset 16
	.cfi_offset 6, -16
	mov	rbp, rsp
	.cfi_def_cfa_register 6
	sub	rsp, 16
	mov	QWORD PTR -8[rbp], rdi
	mov	QWORD PTR -16[rbp], rsi
	.loc 4 142 33
	lea	rax, -8[rbp]
	mov	rdi, rax
	call	_ZSt19__iterator_categoryIPKcENSt15iterator_traitsIT_E17iterator_categoryERKS3_
	.loc 4 141 29
	mov	rax, QWORD PTR -8[rbp]
	mov	rdx, QWORD PTR -16[rbp]
	mov	rsi, rdx
	mov	rdi, rax
	call	_ZSt10__distanceIPKcENSt15iterator_traitsIT_E15difference_typeES3_S3_St26random_access_iterator_tag
	.loc 4 143 5
	leave
	.cfi_def_cfa 7, 8
	ret
	.cfi_endproc
.LFE3885:
	.size	_ZSt8distanceIPKcENSt15iterator_traitsIT_E15difference_typeES3_S3_, .-_ZSt8distanceIPKcENSt15iterator_traitsIT_E15difference_typeES3_S3_
	.section	.rodata
	.align 8
.LC5:
	.string	"basic_string::_M_construct null not valid"
	.section	.text._ZNSt7__cxx1112basic_stringIcSt11char_traitsIcESaIcEE12_M_constructIPKcEEvT_S8_St20forward_iterator_tag,"axG",@progbits,_ZNSt7__cxx1112basic_stringIcSt11char_traitsIcESaIcEE12_M_constructIPKcEEvT_S8_St20forward_iterator_tag,comdat
	.align 2
	.weak	_ZNSt7__cxx1112basic_stringIcSt11char_traitsIcESaIcEE12_M_constructIPKcEEvT_S8_St20forward_iterator_tag
	.type	_ZNSt7__cxx1112basic_stringIcSt11char_traitsIcESaIcEE12_M_constructIPKcEEvT_S8_St20forward_iterator_tag, @function
_ZNSt7__cxx1112basic_stringIcSt11char_traitsIcESaIcEE12_M_constructIPKcEEvT_S8_St20forward_iterator_tag:
.LFB3884:
	.file 5 "/usr/include/c++/11/bits/basic_string.tcc"
	.loc 5 206 7
	.cfi_startproc
	.cfi_personality 0x9b,DW.ref.__gxx_personality_v0
	.cfi_lsda 0x1b,.LLSDA3884
	endbr64
	push	rbp
	.cfi_def_cfa_offset 16
	.cfi_offset 6, -16
	mov	rbp, rsp
	.cfi_def_cfa_register 6
	push	rbx
	sub	rsp, 56
	.cfi_offset 3, -24
	mov	QWORD PTR -40[rbp], rdi
	mov	QWORD PTR -48[rbp], rsi
	mov	QWORD PTR -56[rbp], rdx
	.loc 5 206 7
	mov	rax, QWORD PTR fs:40
	mov	QWORD PTR -24[rbp], rax
	xor	eax, eax
	.loc 5 211 34
	mov	rax, QWORD PTR -48[rbp]
	mov	rdi, rax
	call	_ZN9__gnu_cxx17__is_null_pointerIKcEEbPT_
	.loc 5 211 42
	test	al, al
	je	.L46
	.loc 5 211 42 is_stmt 0 discriminator 1
	mov	rax, QWORD PTR -48[rbp]
	cmp	rax, QWORD PTR -56[rbp]
	je	.L46
	.loc 5 211 42 discriminator 3
	mov	eax, 1
	jmp	.L47
.L46:
	.loc 5 211 42 discriminator 4
	mov	eax, 0
.L47:
	.loc 5 211 2 is_stmt 1 discriminator 6
	test	al, al
	je	.L48
	.loc 5 212 28
	lea	rax, .LC5[rip]
	mov	rdi, rax
.LEHB13:
	call	_ZSt19__throw_logic_errorPKc@PLT
.L48:
	.loc 5 215 57
	mov	rdx, QWORD PTR -56[rbp]
	mov	rax, QWORD PTR -48[rbp]
	mov	rsi, rdx
	mov	rdi, rax
	call	_ZSt8distanceIPKcENSt15iterator_traitsIT_E15difference_typeES3_S3_
	.loc 5 215 12
	mov	QWORD PTR -32[rbp], rax
	.loc 5 217 13
	mov	rax, QWORD PTR -32[rbp]
	.loc 5 217 2
	cmp	rax, 15
	jbe	.L49
	.loc 5 219 13
	lea	rcx, -32[rbp]
	mov	rax, QWORD PTR -40[rbp]
	mov	edx, 0
	mov	rsi, rcx
	mov	rdi, rax
	call	_ZNSt7__cxx1112basic_stringIcSt11char_traitsIcESaIcEE9_M_createERmm@PLT
	mov	rdx, rax
	mov	rax, QWORD PTR -40[rbp]
	mov	rsi, rdx
	mov	rdi, rax
	call	_ZNSt7__cxx1112basic_stringIcSt11char_traitsIcESaIcEE7_M_dataEPc@PLT
	.loc 5 220 17
	mov	rdx, QWORD PTR -32[rbp]
	mov	rax, QWORD PTR -40[rbp]
	mov	rsi, rdx
	mov	rdi, rax
	call	_ZNSt7__cxx1112basic_stringIcSt11char_traitsIcESaIcEE11_M_capacityEm@PLT
.LEHE13:
.L49:
	.loc 5 225 25
	mov	rax, QWORD PTR -40[rbp]
	mov	rdi, rax
.LEHB14:
	call	_ZNKSt7__cxx1112basic_stringIcSt11char_traitsIcESaIcEE7_M_dataEv@PLT
.LEHE14:
	mov	rcx, rax
	mov	rdx, QWORD PTR -56[rbp]
	mov	rax, QWORD PTR -48[rbp]
	mov	rsi, rax
	mov	rdi, rcx
	call	_ZNSt7__cxx1112basic_stringIcSt11char_traitsIcESaIcEE13_S_copy_charsEPcPKcS7_@PLT
	.loc 5 232 15
	mov	rdx, QWORD PTR -32[rbp]
	mov	rax, QWORD PTR -40[rbp]
	mov	rsi, rdx
	mov	rdi, rax
.LEHB15:
	call	_ZNSt7__cxx1112basic_stringIcSt11char_traitsIcESaIcEE13_M_set_lengthEm@PLT
.LEHE15:
	.loc 5 233 7
	nop
	mov	rax, QWORD PTR -24[rbp]
	sub	rax, QWORD PTR fs:40
	je	.L52
	jmp	.L55
.L53:
	endbr64
	.loc 5 226 2
	mov	rdi, rax
	call	__cxa_begin_catch@PLT
	.loc 5 228 16
	mov	rax, QWORD PTR -40[rbp]
	mov	rdi, rax
.LEHB16:
	call	_ZNSt7__cxx1112basic_stringIcSt11char_traitsIcESaIcEE10_M_disposeEv@PLT
	.loc 5 229 6
	call	__cxa_rethrow@PLT
.LEHE16:
.L54:
	endbr64
	.loc 5 226 2
	mov	rbx, rax
	call	__cxa_end_catch@PLT
	mov	rax, rbx
	mov	rdi, rax
.LEHB17:
	call	_Unwind_Resume@PLT
.LEHE17:
.L55:
	.loc 5 233 7
	call	__stack_chk_fail@PLT
.L52:
	mov	rbx, QWORD PTR -8[rbp]
	leave
	.cfi_def_cfa 7, 8
	ret
	.cfi_endproc
.LFE3884:
	.section	.gcc_except_table
	.align 4
.LLSDA3884:
	.byte	0xff
	.byte	0x9b
	.uleb128 .LLSDATT3884-.LLSDATTD3884
.LLSDATTD3884:
	.byte	0x1
	.uleb128 .LLSDACSE3884-.LLSDACSB3884
.LLSDACSB3884:
	.uleb128 .LEHB13-.LFB3884
	.uleb128 .LEHE13-.LEHB13
	.uleb128 0
	.uleb128 0
	.uleb128 .LEHB14-.LFB3884
	.uleb128 .LEHE14-.LEHB14
	.uleb128 .L53-.LFB3884
	.uleb128 0x1
	.uleb128 .LEHB15-.LFB3884
	.uleb128 .LEHE15-.LEHB15
	.uleb128 0
	.uleb128 0
	.uleb128 .LEHB16-.LFB3884
	.uleb128 .LEHE16-.LEHB16
	.uleb128 .L54-.LFB3884
	.uleb128 0
	.uleb128 .LEHB17-.LFB3884
	.uleb128 .LEHE17-.LEHB17
	.uleb128 0
	.uleb128 0
.LLSDACSE3884:
	.byte	0x1
	.byte	0
	.align 4
	.long	0

.LLSDATT3884:
	.section	.text._ZNSt7__cxx1112basic_stringIcSt11char_traitsIcESaIcEE12_M_constructIPKcEEvT_S8_St20forward_iterator_tag,"axG",@progbits,_ZNSt7__cxx1112basic_stringIcSt11char_traitsIcESaIcEE12_M_constructIPKcEEvT_S8_St20forward_iterator_tag,comdat
	.size	_ZNSt7__cxx1112basic_stringIcSt11char_traitsIcESaIcEE12_M_constructIPKcEEvT_S8_St20forward_iterator_tag, .-_ZNSt7__cxx1112basic_stringIcSt11char_traitsIcESaIcEE12_M_constructIPKcEEvT_S8_St20forward_iterator_tag
	.section	.text._ZN9__gnu_cxx17__is_null_pointerIKcEEbPT_,"axG",@progbits,_ZN9__gnu_cxx17__is_null_pointerIKcEEbPT_,comdat
	.weak	_ZN9__gnu_cxx17__is_null_pointerIKcEEbPT_
	.type	_ZN9__gnu_cxx17__is_null_pointerIKcEEbPT_, @function
_ZN9__gnu_cxx17__is_null_pointerIKcEEbPT_:
.LFB3964:
	.file 6 "/usr/include/c++/11/ext/type_traits.h"
	.loc 6 152 5
	.cfi_startproc
	endbr64
	push	rbp
	.cfi_def_cfa_offset 16
	.cfi_offset 6, -16
	mov	rbp, rsp
	.cfi_def_cfa_register 6
	mov	QWORD PTR -8[rbp], rdi
	.loc 6 153 23
	cmp	QWORD PTR -8[rbp], 0
	sete	al
	.loc 6 153 26
	pop	rbp
	.cfi_def_cfa 7, 8
	ret
	.cfi_endproc
.LFE3964:
	.size	_ZN9__gnu_cxx17__is_null_pointerIKcEEbPT_, .-_ZN9__gnu_cxx17__is_null_pointerIKcEEbPT_
	.section	.text._ZSt19__iterator_categoryIPKcENSt15iterator_traitsIT_E17iterator_categoryERKS3_,"axG",@progbits,_ZSt19__iterator_categoryIPKcENSt15iterator_traitsIT_E17iterator_categoryERKS3_,comdat
	.weak	_ZSt19__iterator_categoryIPKcENSt15iterator_traitsIT_E17iterator_categoryERKS3_
	.type	_ZSt19__iterator_categoryIPKcENSt15iterator_traitsIT_E17iterator_categoryERKS3_, @function
_ZSt19__iterator_categoryIPKcENSt15iterator_traitsIT_E17iterator_categoryERKS3_:
.LFB3965:
	.file 7 "/usr/include/c++/11/bits/stl_iterator_base_types.h"
	.loc 7 238 5
	.cfi_startproc
	endbr64
	push	rbp
	.cfi_def_cfa_offset 16
	.cfi_offset 6, -16
	mov	rbp, rsp
	.cfi_def_cfa_register 6
	mov	QWORD PTR -8[rbp], rdi
	.loc 7 239 68
	pop	rbp
	.cfi_def_cfa 7, 8
	ret
	.cfi_endproc
.LFE3965:
	.size	_ZSt19__iterator_categoryIPKcENSt15iterator_traitsIT_E17iterator_categoryERKS3_, .-_ZSt19__iterator_categoryIPKcENSt15iterator_traitsIT_E17iterator_categoryERKS3_
	.section	.text._ZSt10__distanceIPKcENSt15iterator_traitsIT_E15difference_typeES3_S3_St26random_access_iterator_tag,"axG",@progbits,_ZSt10__distanceIPKcENSt15iterator_traitsIT_E15difference_typeES3_S3_St26random_access_iterator_tag,comdat
	.weak	_ZSt10__distanceIPKcENSt15iterator_traitsIT_E15difference_typeES3_S3_St26random_access_iterator_tag
	.type	_ZSt10__distanceIPKcENSt15iterator_traitsIT_E15difference_typeES3_S3_St26random_access_iterator_tag, @function
_ZSt10__distanceIPKcENSt15iterator_traitsIT_E15difference_typeES3_S3_St26random_access_iterator_tag:
.LFB3966:
	.loc 4 98 5
	.cfi_startproc
	endbr64
	push	rbp
	.cfi_def_cfa_offset 16
	.cfi_offset 6, -16
	mov	rbp, rsp
	.cfi_def_cfa_register 6
	mov	QWORD PTR -8[rbp], rdi
	mov	QWORD PTR -16[rbp], rsi
	.loc 4 104 23
	mov	rax, QWORD PTR -16[rbp]
	sub	rax, QWORD PTR -8[rbp]
	.loc 4 105 5
	pop	rbp
	.cfi_def_cfa 7, 8
	ret
	.cfi_endproc
.LFE3966:
	.size	_ZSt10__distanceIPKcENSt15iterator_traitsIT_E15difference_typeES3_S3_St26random_access_iterator_tag, .-_ZSt10__distanceIPKcENSt15iterator_traitsIT_E15difference_typeES3_S3_St26random_access_iterator_tag
	.text
	.type	_Z41__static_initialization_and_destruction_0ii, @function
_Z41__static_initialization_and_destruction_0ii:
.LFB4115:
	.loc 2 44 1
	.cfi_startproc
	endbr64
	push	rbp
	.cfi_def_cfa_offset 16
	.cfi_offset 6, -16
	mov	rbp, rsp
	.cfi_def_cfa_register 6
	sub	rsp, 16
	mov	DWORD PTR -4[rbp], edi
	mov	DWORD PTR -8[rbp], esi
	.loc 2 44 1
	cmp	DWORD PTR -4[rbp], 1
	jne	.L64
	.loc 2 44 1 is_stmt 0 discriminator 1
	cmp	DWORD PTR -8[rbp], 65535
	jne	.L64
	.file 8 "/usr/include/c++/11/iostream"
	.loc 8 74 25 is_stmt 1
	lea	rax, _ZStL8__ioinit[rip]
	mov	rdi, rax
	call	_ZNSt8ios_base4InitC1Ev@PLT
	lea	rax, __dso_handle[rip]
	mov	rdx, rax
	lea	rax, _ZStL8__ioinit[rip]
	mov	rsi, rax
	mov	rax, QWORD PTR _ZNSt8ios_base4InitD1Ev@GOTPCREL[rip]
	mov	rdi, rax
	call	__cxa_atexit@PLT
.L64:
	.loc 2 44 1
	nop
	leave
	.cfi_def_cfa 7, 8
	ret
	.cfi_endproc
.LFE4115:
	.size	_Z41__static_initialization_and_destruction_0ii, .-_Z41__static_initialization_and_destruction_0ii
	.type	_GLOBAL__sub_I__ZN7AccountC2EdNSt7__cxx1112basic_stringIcSt11char_traitsIcESaIcEEE, @function
_GLOBAL__sub_I__ZN7AccountC2EdNSt7__cxx1112basic_stringIcSt11char_traitsIcESaIcEEE:
.LFB4116:
	.loc 2 44 1
	.cfi_startproc
	endbr64
	push	rbp
	.cfi_def_cfa_offset 16
	.cfi_offset 6, -16
	mov	rbp, rsp
	.cfi_def_cfa_register 6
	.loc 2 44 1
	mov	esi, 65535
	mov	edi, 1
	call	_Z41__static_initialization_and_destruction_0ii
	pop	rbp
	.cfi_def_cfa 7, 8
	ret
	.cfi_endproc
.LFE4116:
	.size	_GLOBAL__sub_I__ZN7AccountC2EdNSt7__cxx1112basic_stringIcSt11char_traitsIcESaIcEEE, .-_GLOBAL__sub_I__ZN7AccountC2EdNSt7__cxx1112basic_stringIcSt11char_traitsIcESaIcEEE
	.section	.init_array,"aw"
	.align 8
	.quad	_GLOBAL__sub_I__ZN7AccountC2EdNSt7__cxx1112basic_stringIcSt11char_traitsIcESaIcEEE
	.text
.Letext0:
	.file 9 "<built-in>"
	.file 10 "/usr/lib/gcc/x86_64-linux-gnu/11/include/stddef.h"
	.file 11 "/usr/include/x86_64-linux-gnu/bits/types/wint_t.h"
	.file 12 "/usr/include/x86_64-linux-gnu/bits/types/__mbstate_t.h"
	.file 13 "/usr/include/x86_64-linux-gnu/bits/types/mbstate_t.h"
	.file 14 "/usr/include/x86_64-linux-gnu/bits/types/__FILE.h"
	.file 15 "/usr/include/x86_64-linux-gnu/bits/types/struct_FILE.h"
	.file 16 "/usr/include/x86_64-linux-gnu/bits/types/FILE.h"
	.file 17 "/usr/include/c++/11/cwchar"
	.file 18 "/usr/include/c++/11/type_traits"
	.file 19 "/usr/include/x86_64-linux-gnu/c++/11/bits/c++config.h"
	.file 20 "/usr/include/c++/11/bits/exception_ptr.h"
	.file 21 "/usr/include/c++/11/bits/cpp_type_traits.h"
	.file 22 "/usr/include/c++/11/debug/debug.h"
	.file 23 "/usr/include/c++/11/cstdint"
	.file 24 "/usr/include/c++/11/clocale"
	.file 25 "/usr/include/c++/11/bits/allocator.h"
	.file 26 "/usr/include/c++/11/string_view"
	.file 27 "/usr/include/c++/11/cstdlib"
	.file 28 "/usr/include/c++/11/cstdio"
	.file 29 "/usr/include/c++/11/bits/alloc_traits.h"
	.file 30 "/usr/include/c++/11/initializer_list"
	.file 31 "/usr/include/c++/11/bits/stringfwd.h"
	.file 32 "/usr/include/c++/11/bits/ios_base.h"
	.file 33 "/usr/include/c++/11/cwctype"
	.file 34 "/usr/include/c++/11/ostream"
	.file 35 "/usr/include/c++/11/iosfwd"
	.file 36 "/usr/include/c++/11/cmath"
	.file 37 "/usr/include/c++/11/bits/stl_iterator.h"
	.file 38 "/usr/include/c++/11/ctime"
	.file 39 "/usr/include/c++/11/bits/functexcept.h"
	.file 40 "/usr/include/c++/11/bits/move.h"
	.file 41 "/usr/include/wchar.h"
	.file 42 "/usr/include/x86_64-linux-gnu/bits/types/struct_tm.h"
	.file 43 "/usr/include/c++/11/bits/predefined_ops.h"
	.file 44 "/usr/include/c++/11/ext/new_allocator.h"
	.file 45 "/usr/include/c++/11/ext/alloc_traits.h"
	.file 46 "/usr/include/x86_64-linux-gnu/bits/types.h"
	.file 47 "/usr/include/x86_64-linux-gnu/bits/stdint-intn.h"
	.file 48 "/usr/include/x86_64-linux-gnu/bits/stdint-uintn.h"
	.file 49 "/usr/include/stdint.h"
	.file 50 "/usr/include/locale.h"
	.file 51 "/usr/include/x86_64-linux-gnu/bits/types/time_t.h"
	.file 52 "/usr/include/x86_64-linux-gnu/bits/types/struct_timespec.h"
	.file 53 "/usr/include/x86_64-linux-gnu/bits/types/clock_t.h"
	.file 54 "/usr/include/stdlib.h"
	.file 55 "/usr/include/x86_64-linux-gnu/bits/types/__fpos_t.h"
	.file 56 "/usr/include/stdio.h"
	.file 57 "/usr/include/x86_64-linux-gnu/bits/wctype-wchar.h"
	.file 58 "/usr/include/wctype.h"
	.file 59 "account.h"
	.file 60 "/usr/include/math.h"
	.file 61 "/usr/include/c++/11/pstl/execution_defs.h"
	.file 62 "/usr/include/time.h"
	.file 63 "/usr/include/c++/11/new"
	.file 64 "/usr/include/c++/11/system_error"
	.section	.data.rel.local.DW.ref.__gxx_personality_v0,"awG",@progbits,DW.ref.__gxx_personality_v0,comdat
	.align 8
	.type	DW.ref.__gxx_personality_v0, @object
	.size	DW.ref.__gxx_personality_v0, 8
DW.ref.__gxx_personality_v0:
	.quad	__gxx_personality_v0
	.hidden	__dso_handle
	.ident	"GCC: (Ubuntu 11.4.0-1ubuntu1~22.04) 11.4.0"
	.section	.note.GNU-stack,"",@progbits
	.section	.note.gnu.property,"a"
	.align 8
	.long	1f - 0f
	.long	4f - 1f
	.long	5
0:
	.string	"GNU"
1:
	.align 8
	.long	0xc0000002
	.long	3f - 2f
2:
	.long	0x3
3:
	.align 8
4:
